target datalayout = "e-m:e-p270:32:32-p271:32:32-p272:64:64-i64:64-i128:128-f80:128-n8:16:32:64-S128"
target triple = "x86_64-pc-linux-gnu"

%struct.ItemPointerData = type { %struct.BlockIdData, i16 }
%struct.BlockIdData = type { i16, i16 }
%struct.ScanKeyData = type { i32, i16, i16, i32, i32, %struct.FmgrInfo, i64 }
%struct.FmgrInfo = type { ptr, i32, i16, i8, i8, i8, ptr, ptr, ptr }
%struct.FormData_pg_depend = type { i32, i32, i32, i32, i32, i32, i8 }
%struct.HeapTupleData = type { i32, %struct.ItemPointerData, i32, ptr }
%struct.HeapTupleHeaderData = type { %union.anon, %struct.ItemPointerData, i16, i16, i8, [0 x i8] }
%union.anon = type { %struct.HeapTupleFields }
%struct.HeapTupleFields = type { i32, i32, %union.anon.0 }
%union.anon.0 = type { i32 }

; Function Attrs: inlinehint nounwind uwtable
define internal ptr @GETSTRUCT(ptr noundef %0) #3 {
  %2 = alloca ptr, align 8
  store ptr %0, ptr %2, align 8
  %3 = load ptr, ptr %2, align 8
  %4 = getelementptr inbounds nuw %struct.HeapTupleData, ptr %3, i32 0, i32 3
  %5 = load ptr, ptr %4, align 8
  %6 = load ptr, ptr %2, align 8
  %7 = getelementptr inbounds nuw %struct.HeapTupleData, ptr %6, i32 0, i32 3
  %8 = load ptr, ptr %7, align 8
  %9 = getelementptr inbounds nuw %struct.HeapTupleHeaderData, ptr %8, i32 0, i32 4
  %10 = load i8, ptr %9, align 2
  %11 = zext i8 %10 to i32
  %12 = sext i32 %11 to i64
  %13 = getelementptr inbounds i8, ptr %5, i64 %12
  ret ptr %13
}

; Function Attrs: inlinehint nounwind uwtable
define internal i64 @ObjectIdGetDatum(i32 noundef %0) #3 {
  %2 = alloca i32, align 4
  store i32 %0, ptr %2, align 4
  %3 = load i32, ptr %2, align 4
  %4 = zext i32 %3 to i64
  ret i64 %4
}

; Function Attrs: nounwind uwtable
define dso_local i64 @deleteDependencyRecordsFor(i32 noundef %0, i32 noundef %1, i1 noundef zeroext %2) #0 {
  %4 = alloca i32, align 4
  %5 = alloca i32, align 4
  %6 = alloca i8, align 1
  %7 = alloca i64, align 8
  %8 = alloca ptr, align 8
  %9 = alloca [2 x %struct.ScanKeyData], align 16
  %10 = alloca ptr, align 8
  %11 = alloca ptr, align 8
  store i32 %0, ptr %4, align 4
  store i32 %1, ptr %5, align 4
  %12 = zext i1 %2 to i8
  store i8 %12, ptr %6, align 1
  call void @llvm.lifetime.start.p0(i64 8, ptr %7) #6
  store i64 0, ptr %7, align 8
  call void @llvm.lifetime.start.p0(i64 8, ptr %8) #6
  call void @llvm.lifetime.start.p0(i64 144, ptr %9) #6
  call void @llvm.lifetime.start.p0(i64 8, ptr %10) #6
  call void @llvm.lifetime.start.p0(i64 8, ptr %11) #6
  %13 = call ptr @table_open(i32 noundef 2608, i32 noundef 3)
  store ptr %13, ptr %8, align 8
  %14 = getelementptr inbounds [2 x %struct.ScanKeyData], ptr %9, i64 0, i64 0
  %15 = load i32, ptr %4, align 4
  %16 = call i64 @ObjectIdGetDatum(i32 noundef %15)
  call void @ScanKeyInit(ptr noundef %14, i16 noundef signext 1, i16 noundef zeroext 3, i32 noundef 184, i64 noundef %16)
  %17 = getelementptr inbounds [2 x %struct.ScanKeyData], ptr %9, i64 0, i64 1
  %18 = load i32, ptr %5, align 4
  %19 = call i64 @ObjectIdGetDatum(i32 noundef %18)
  call void @ScanKeyInit(ptr noundef %17, i16 noundef signext 2, i16 noundef zeroext 3, i32 noundef 184, i64 noundef %19)
  %20 = load ptr, ptr %8, align 8
  %21 = getelementptr inbounds [2 x %struct.ScanKeyData], ptr %9, i64 0, i64 0
  %22 = call ptr @systable_beginscan(ptr noundef %20, i32 noundef 2673, i1 noundef zeroext true, ptr noundef null, i32 noundef 2, ptr noundef %21)
  store ptr %22, ptr %10, align 8
  br label %23

23:                                               ; preds = %38, %37, %3
  %24 = load ptr, ptr %10, align 8
  %25 = call ptr @systable_getnext(ptr noundef %24)
  store ptr %25, ptr %11, align 8
  %26 = icmp ne ptr %25, null
  br i1 %26, label %27, label %44

27:                                               ; preds = %23
  %28 = load i8, ptr %6, align 1, !range !7, !noundef !8
  %29 = trunc i8 %28 to i1
  br i1 %29, label %30, label %38

30:                                               ; preds = %27
  %31 = load ptr, ptr %11, align 8
  %32 = call ptr @GETSTRUCT(ptr noundef %31)
  %33 = getelementptr inbounds nuw %struct.FormData_pg_depend, ptr %32, i32 0, i32 6
  %34 = load i8, ptr %33, align 4
  %35 = sext i8 %34 to i32
  %36 = icmp eq i32 %35, 101
  br i1 %36, label %37, label %38

37:                                               ; preds = %30
  br label %23, !llvm.loop !10

38:                                               ; preds = %30, %27
  %39 = load ptr, ptr %8, align 8
  %40 = load ptr, ptr %11, align 8
  %41 = getelementptr inbounds nuw %struct.HeapTupleData, ptr %40, i32 0, i32 1
  call void @CatalogTupleDelete(ptr noundef %39, ptr noundef %41)
  %42 = load i64, ptr %7, align 8
  %43 = add i64 %42, 1
  store i64 %43, ptr %7, align 8
  br label %23, !llvm.loop !10

44:                                               ; preds = %23
  %45 = load ptr, ptr %10, align 8
  call void @systable_endscan(ptr noundef %45)
  %46 = load ptr, ptr %8, align 8
  call void @table_close(ptr noundef %46, i32 noundef 3)
  %47 = load i64, ptr %7, align 8
  call void @llvm.lifetime.end.p0(i64 8, ptr %11) #6
  call void @llvm.lifetime.end.p0(i64 8, ptr %10) #6
  call void @llvm.lifetime.end.p0(i64 144, ptr %9) #6
  call void @llvm.lifetime.end.p0(i64 8, ptr %8) #6
  call void @llvm.lifetime.end.p0(i64 8, ptr %7) #6
  ret i64 %47
}