; Function Attrs: nounwind uwtable
define dso_local i64 @deleteDependencyRecordsFor(i32 noundef %0, i32 noundef %1, i1 noundef zeroext %2) local_unnamed_addr #0 {
  %4 = alloca [2 x %struct.ScanKeyData], align 16
  call void @llvm.lifetime.start.p0(i64 144, ptr nonnull %4) #7
  %5 = tail call ptr @table_open(i32 noundef 2608, i32 noundef 3) #7
  %6 = zext i32 %0 to i64
  call void @ScanKeyInit(ptr noundef nonnull %4, i16 noundef signext 1, i16 noundef zeroext 3, i32 noundef 184, i64 noundef %6) #7
  %7 = getelementptr inbounds nuw i8, ptr %4, i64 72
  %8 = zext i32 %1 to i64
  call void @ScanKeyInit(ptr noundef nonnull %7, i16 noundef signext 2, i16 noundef zeroext 3, i32 noundef 184, i64 noundef %8) #7
  %9 = call ptr @systable_beginscan(ptr noundef %5, i32 noundef 2673, i1 noundef zeroext true, ptr noundef null, i32 noundef 2, ptr noundef nonnull %4) #7
  br i1 %2, label %.outer.us, label %.split16

.outer.us:                                        ; preds = %3, %.split14.us.us
  %.0.ph.us = phi i64 [ %22, %.split14.us.us ], [ 0, %3 ]
  br label %10

10:                                               ; preds = %12, %.outer.us
  %11 = call ptr @systable_getnext(ptr noundef %9) #7
  %.not.us.us = icmp eq ptr %11, null
  br i1 %.not.us.us, label %.split.us, label %12

12:                                               ; preds = %10
  %13 = getelementptr i8, ptr %11, i64 16
  %.val.us.us = load ptr, ptr %13, align 8
  %14 = getelementptr inbounds nuw i8, ptr %.val.us.us, i64 22
  %15 = load i8, ptr %14, align 2
  %16 = zext i8 %15 to i64
  %17 = getelementptr inbounds nuw i8, ptr %.val.us.us, i64 %16
  %18 = getelementptr inbounds nuw i8, ptr %17, i64 24
  %19 = load i8, ptr %18, align 4
  %20 = icmp eq i8 %19, 101
  br i1 %20, label %10, label %.split14.us.us, !llvm.loop !9

.split14.us.us:                                   ; preds = %12
  %21 = getelementptr inbounds nuw i8, ptr %11, i64 4
  call void @CatalogTupleDelete(ptr noundef %5, ptr noundef nonnull %21) #7
  %22 = add i64 %.0.ph.us, 1
  br label %.outer.us, !llvm.loop !9

.split16:                                         ; preds = %3
  %23 = call ptr @systable_getnext(ptr noundef %9) #7
  %.not18 = icmp eq ptr %23, null
  br i1 %.not18, label %.split.us, label %.split14

.split14:                                         ; preds = %.split16, %.split14
  %24 = phi ptr [ %27, %.split14 ], [ %23, %.split16 ]
  %.0.ph19 = phi i64 [ %26, %.split14 ], [ 0, %.split16 ]
  %25 = getelementptr inbounds nuw i8, ptr %24, i64 4
  call void @CatalogTupleDelete(ptr noundef %5, ptr noundef nonnull %25) #7
  %26 = add i64 %.0.ph19, 1
  %27 = call ptr @systable_getnext(ptr noundef %9) #7
  %.not = icmp eq ptr %27, null
  br i1 %.not, label %.split.us, label %.split14, !llvm.loop !9

.split.us:                                        ; preds = %.split14, %10, %.split16
  %.us-phi = phi i64 [ 0, %.split16 ], [ %.0.ph.us, %10 ], [ %26, %.split14 ]
  call void @systable_endscan(ptr noundef %9) #7
  call void @table_close(ptr noundef %5, i32 noundef 3) #7
  call void @llvm.lifetime.end.p0(i64 144, ptr nonnull %4) #7
  ret i64 %.us-phi
}